; ModuleID = '1/2153.c'
source_filename = "1/2153.c"
target datalayout = "e-m:e-p270:32:32-p271:32:32-p272:64:64-i64:64-f80:128-n8:16:32:64-S128"
target triple = "x86_64-pc-linux-gnu"

@.str = private unnamed_addr constant [3 x i8] c"%d\00", align 1
@sum = common dso_local global i32 0, align 4
@.str.1 = private unnamed_addr constant [4 x i8] c"%d\0A\00", align 1

; Function Attrs: noinline nounwind uwtable
define dso_local i32 @main() #0 {
  %1 = alloca i32, align 4
  %2 = alloca i32, align 4
  %3 = alloca i32, align 4
  %4 = alloca i32, align 4
  %5 = alloca i32, align 4
  store i32 0, i32* %1, align 4
  %6 = call i32 (i8*, ...) @__isoc99_scanf(i8* getelementptr inbounds ([3 x i8], [3 x i8]* @.str, i64 0, i64 0), i32* %2)
  store i32 0, i32* %3, align 4
  br label %7

7:                                                ; preds = %16, %0
  %8 = load i32, i32* %3, align 4
  %9 = load i32, i32* %2, align 4
  %10 = icmp slt i32 %8, %9
  br i1 %10, label %11, label %19

11:                                               ; preds = %7
  store i32 1, i32* @sum, align 4
  %12 = call i32 (i8*, ...) @__isoc99_scanf(i8* getelementptr inbounds ([3 x i8], [3 x i8]* @.str, i64 0, i64 0), i32* %4)
  %13 = load i32, i32* %4, align 4
  call void @f(i32 2, i32 %13)
  %14 = load i32, i32* @sum, align 4
  %15 = call i32 (i8*, ...) @printf(i8* getelementptr inbounds ([4 x i8], [4 x i8]* @.str.1, i64 0, i64 0), i32 %14)
  br label %16

16:                                               ; preds = %11
  %17 = load i32, i32* %3, align 4
  %18 = add nsw i32 %17, 1
  store i32 %18, i32* %3, align 4
  br label %7

19:                                               ; preds = %7
  %20 = load i32, i32* %1, align 4
  ret i32 %20
}

declare dso_local i32 @__isoc99_scanf(i8*, ...) #1

; Function Attrs: noinline nounwind uwtable
define dso_local void @f(i32 %0, i32 %1) #0 {
  %3 = alloca i32, align 4
  %4 = alloca i32, align 4
  %5 = alloca i32, align 4
  %6 = alloca i32, align 4
  store i32 %0, i32* %3, align 4
  store i32 %1, i32* %4, align 4
  %7 = load i32, i32* %4, align 4
  %8 = sitofp i32 %7 to double
  %9 = call double @sqrt(double %8) #3
  %10 = fptosi double %9 to i32
  store i32 %10, i32* %6, align 4
  %11 = load i32, i32* %3, align 4
  store i32 %11, i32* %5, align 4
  br label %12

12:                                               ; preds = %29, %2
  %13 = load i32, i32* %5, align 4
  %14 = load i32, i32* %6, align 4
  %15 = icmp sle i32 %13, %14
  br i1 %15, label %16, label %32

16:                                               ; preds = %12
  %17 = load i32, i32* %4, align 4
  %18 = load i32, i32* %5, align 4
  %19 = srem i32 %17, %18
  %20 = icmp eq i32 %19, 0
  br i1 %20, label %21, label %28

21:                                               ; preds = %16
  %22 = load i32, i32* @sum, align 4
  %23 = add nsw i32 %22, 1
  store i32 %23, i32* @sum, align 4
  %24 = load i32, i32* %5, align 4
  %25 = load i32, i32* %4, align 4
  %26 = load i32, i32* %5, align 4
  %27 = sdiv i32 %25, %26
  call void @f(i32 %24, i32 %27)
  br label %28

28:                                               ; preds = %21, %16
  br label %29

29:                                               ; preds = %28
  %30 = load i32, i32* %5, align 4
  %31 = add nsw i32 %30, 1
  store i32 %31, i32* %5, align 4
  br label %12

32:                                               ; preds = %12
  ret void
}

declare dso_local i32 @printf(i8*, ...) #1

; Function Attrs: nounwind
declare dso_local double @sqrt(double) #2


!llvm.module.flags = !{!0}
!llvm.ident = !{!1}

!0 = !{i32 1, !"wchar_size", i32 4}
!1 = !{!"clang version 10.0.0-4ubuntu1 "}
